; Function Attrs: inlinehint mustprogress nounwind uwtable
define internal void @_ZN7rocksdb12_GLOBAL__N_121EmptyInternalIteratorINS_10IndexValueEED0Ev(ptr noundef nonnull align 8 dereferenceable(56) initializes((0, 8)) %0) unnamed_addr #7 align 2 personality ptr @__gxx_personality_v0 {
  store ptr getelementptr inbounds nuw inrange(-16, 208) (i8, ptr @_ZTVN7rocksdb12_GLOBAL__N_121EmptyInternalIteratorINS_10IndexValueEEE, i64 16), ptr %0, align 8, !tbaa !4
  %2 = getelementptr inbounds nuw i8, ptr %0, i64 48
  %3 = load ptr, ptr %2, align 8, !tbaa !30
  %.not.i.i.i = icmp eq ptr %3, null
  br i1 %.not.i.i.i, label %_ZN7rocksdb12_GLOBAL__N_121EmptyInternalIteratorINS_10IndexValueEED2Ev.exit, label %_ZNKSt14default_deleteIA_KcEclIS0_EENSt9enable_ifIXsr14is_convertibleIPA_T_PS1_EE5valueEvE4typeEPS5_.exit.i.i.i

_ZNKSt14default_deleteIA_KcEclIS0_EENSt9enable_ifIXsr14is_convertibleIPA_T_PS1_EE5valueEvE4typeEPS5_.exit.i.i.i: ; preds = %1
  tail call void @_ZdaPv(ptr noundef nonnull %3) #13
  br label %_ZN7rocksdb12_GLOBAL__N_121EmptyInternalIteratorINS_10IndexValueEED2Ev.exit

_ZN7rocksdb12_GLOBAL__N_121EmptyInternalIteratorINS_10IndexValueEED2Ev.exit: ; preds = %1, %_ZNKSt14default_deleteIA_KcEclIS0_EENSt9enable_ifIXsr14is_convertibleIPA_T_PS1_EE5valueEvE4typeEPS5_.exit.i.i.i
  store ptr null, ptr %2, align 8, !tbaa !30
  %4 = getelementptr inbounds nuw i8, ptr %0, i64 8
  tail call void @_ZN7rocksdb9CleanableD2Ev(ptr noundef nonnull align 8 dereferenceable(32) %4) #14
  tail call void @_ZdlPvm(ptr noundef nonnull %0, i64 noundef 56) #13
  ret void
}